; ModuleID = '40/2748.c'
source_filename = "40/2748.c"
target datalayout = "e-m:e-p270:32:32-p271:32:32-p272:64:64-i64:64-f80:128-n8:16:32:64-S128"
target triple = "x86_64-pc-linux-gnu"

@.str = private unnamed_addr constant [11 x i8] c"%f%f%f%f%f\00", align 1
@.str.1 = private unnamed_addr constant [14 x i8] c"Invalid input\00", align 1
@.str.2 = private unnamed_addr constant [5 x i8] c"%.4f\00", align 1

; Function Attrs: noinline nounwind uwtable
define dso_local i32 @main(i32 %0, i8** %1) #0 {
  %3 = alloca i32, align 4
  %4 = alloca i32, align 4
  %5 = alloca i8**, align 8
  %6 = alloca float, align 4
  %7 = alloca float, align 4
  %8 = alloca float, align 4
  %9 = alloca float, align 4
  %10 = alloca float, align 4
  %11 = alloca float, align 4
  %12 = alloca float, align 4
  %13 = alloca float, align 4
  store i32 0, i32* %3, align 4
  store i32 %0, i32* %4, align 4
  store i8** %1, i8*** %5, align 8
  store float 0.000000e+00, float* %12, align 4
  %14 = call i32 (i8*, ...) @__isoc99_scanf(i8* getelementptr inbounds ([11 x i8], [11 x i8]* @.str, i64 0, i64 0), float* %6, float* %7, float* %8, float* %9, float* %10)
  %15 = load float, float* %6, align 4
  %16 = load float, float* %7, align 4
  %17 = fadd float %15, %16
  %18 = load float, float* %8, align 4
  %19 = fadd float %17, %18
  %20 = load float, float* %9, align 4
  %21 = fadd float %19, %20
  %22 = fdiv float %21, 2.000000e+00
  store float %22, float* %11, align 4
  %23 = load float, float* %11, align 4
  %24 = load float, float* %6, align 4
  %25 = fsub float %23, %24
  %26 = load float, float* %11, align 4
  %27 = load float, float* %7, align 4
  %28 = fsub float %26, %27
  %29 = fmul float %25, %28
  %30 = load float, float* %11, align 4
  %31 = load float, float* %8, align 4
  %32 = fsub float %30, %31
  %33 = fmul float %29, %32
  %34 = load float, float* %11, align 4
  %35 = load float, float* %9, align 4
  %36 = fsub float %34, %35
  %37 = fmul float %33, %36
  %38 = fpext float %37 to double
  %39 = load float, float* %6, align 4
  %40 = load float, float* %7, align 4
  %41 = fmul float %39, %40
  %42 = load float, float* %8, align 4
  %43 = fmul float %41, %42
  %44 = load float, float* %9, align 4
  %45 = fmul float %43, %44
  %46 = fpext float %45 to double
  %47 = load float, float* %10, align 4
  %48 = fpext float %47 to double
  %49 = fmul double %48, 0x400921FB4D12D84A
  %50 = fdiv double %49, 3.600000e+02
  %51 = call double @cos(double %50) #3
  %52 = call double @pow(double %51, double 2.000000e+00) #3
  %53 = fmul double %46, %52
  %54 = fsub double %38, %53
  %55 = fptrunc double %54 to float
  store float %55, float* %13, align 4
  %56 = load float, float* %13, align 4
  %57 = fcmp olt float %56, 0.000000e+00
  br i1 %57, label %58, label %60

58:                                               ; preds = %2
  %59 = call i32 (i8*, ...) @printf(i8* getelementptr inbounds ([14 x i8], [14 x i8]* @.str.1, i64 0, i64 0))
  br label %68

60:                                               ; preds = %2
  %61 = load float, float* %13, align 4
  %62 = fpext float %61 to double
  %63 = call double @sqrt(double %62) #3
  %64 = fptrunc double %63 to float
  store float %64, float* %12, align 4
  %65 = load float, float* %12, align 4
  %66 = fpext float %65 to double
  %67 = call i32 (i8*, ...) @printf(i8* getelementptr inbounds ([5 x i8], [5 x i8]* @.str.2, i64 0, i64 0), double %66)
  br label %68

68:                                               ; preds = %60, %58
  ret i32 0
}

declare dso_local i32 @__isoc99_scanf(i8*, ...) #1

; Function Attrs: nounwind
declare dso_local double @pow(double, double) #2

; Function Attrs: nounwind
declare dso_local double @cos(double) #2

declare dso_local i32 @printf(i8*, ...) #1

; Function Attrs: nounwind
declare dso_local double @sqrt(double) #2


!llvm.module.flags = !{!0}
!llvm.ident = !{!1}

!0 = !{i32 1, !"wchar_size", i32 4}
!1 = !{!"clang version 10.0.0-4ubuntu1 "}
