; ModuleID = 'source-C-CXX/39/2748.c'
source_filename = "source-C-CXX/39/2748.c"
target datalayout = "e-m:e-p270:32:32-p271:32:32-p272:64:64-i64:64-f80:128-n8:16:32:64-S128"
target triple = "x86_64-pc-linux-gnu"

@.str = private unnamed_addr constant [11 x i8] c"%f%f%f%f%f\00", align 1
@.str.1 = private unnamed_addr constant [14 x i8] c"Invalid input\00", align 1
@.str.2 = private unnamed_addr constant [5 x i8] c"%.4f\00", align 1

; Function Attrs: nofree nounwind sspstrong uwtable
define dso_local i32 @main(i32 %0, i8** nocapture readnone %1) local_unnamed_addr #0 {
  %3 = alloca float, align 4
  %4 = alloca float, align 4
  %5 = alloca float, align 4
  %6 = alloca float, align 4
  %7 = alloca float, align 4
  %8 = bitcast float* %3 to i8*
  call void @llvm.lifetime.start.p0i8(i64 4, i8* nonnull %8) #4
  %9 = bitcast float* %4 to i8*
  call void @llvm.lifetime.start.p0i8(i64 4, i8* nonnull %9) #4
  %10 = bitcast float* %5 to i8*
  call void @llvm.lifetime.start.p0i8(i64 4, i8* nonnull %10) #4
  %11 = bitcast float* %6 to i8*
  call void @llvm.lifetime.start.p0i8(i64 4, i8* nonnull %11) #4
  %12 = bitcast float* %7 to i8*
  call void @llvm.lifetime.start.p0i8(i64 4, i8* nonnull %12) #4
  %13 = call i32 (i8*, ...) @__isoc99_scanf(i8* getelementptr inbounds ([11 x i8], [11 x i8]* @.str, i64 0, i64 0), float* nonnull %3, float* nonnull %4, float* nonnull %5, float* nonnull %6, float* nonnull %7)
  %14 = load float, float* %3, align 4, !tbaa !5
  %15 = load float, float* %4, align 4, !tbaa !5
  %16 = fadd float %14, %15
  %17 = load float, float* %5, align 4, !tbaa !5
  %18 = fadd float %16, %17
  %19 = load float, float* %6, align 4, !tbaa !5
  %20 = fadd float %18, %19
  %21 = fmul float %20, 5.000000e-01
  %22 = fsub float %21, %14
  %23 = fsub float %21, %15
  %24 = fmul float %22, %23
  %25 = fsub float %21, %17
  %26 = fmul float %25, %24
  %27 = fsub float %21, %19
  %28 = fmul float %27, %26
  %29 = fpext float %28 to double
  %30 = fmul float %14, %15
  %31 = fmul float %30, %17
  %32 = fmul float %31, %19
  %33 = fpext float %32 to double
  %34 = load float, float* %7, align 4, !tbaa !5
  %35 = fpext float %34 to double
  %36 = fmul double %35, 0x400921FB4D12D84A
  %37 = fdiv double %36, 3.600000e+02
  %38 = call double @cos(double %37) #4
  %39 = fmul double %38, %38
  %40 = fmul double %39, %33
  %41 = fsub double %29, %40
  %42 = fptrunc double %41 to float
  %43 = fcmp olt float %42, 0.000000e+00
  br i1 %43, label %44, label %46

44:                                               ; preds = %2
  %45 = call i32 (i8*, ...) @printf(i8* nonnull dereferenceable(1) getelementptr inbounds ([14 x i8], [14 x i8]* @.str.1, i64 0, i64 0))
  br label %50

46:                                               ; preds = %2
  %47 = call float @sqrtf(float %42) #3
  %48 = fpext float %47 to double
  %49 = call i32 (i8*, ...) @printf(i8* nonnull dereferenceable(1) getelementptr inbounds ([5 x i8], [5 x i8]* @.str.2, i64 0, i64 0), double %48)
  br label %50

50:                                               ; preds = %46, %44
  call void @llvm.lifetime.end.p0i8(i64 4, i8* nonnull %12) #4
  call void @llvm.lifetime.end.p0i8(i64 4, i8* nonnull %11) #4
  call void @llvm.lifetime.end.p0i8(i64 4, i8* nonnull %10) #4
  call void @llvm.lifetime.end.p0i8(i64 4, i8* nonnull %9) #4
  call void @llvm.lifetime.end.p0i8(i64 4, i8* nonnull %8) #4
  ret i32 0
}

; Function Attrs: argmemonly mustprogress nofree nosync nounwind willreturn
declare void @llvm.lifetime.start.p0i8(i64 immarg, i8* nocapture) #1

; Function Attrs: nofree nounwind
declare noundef i32 @__isoc99_scanf(i8* nocapture noundef readonly, ...) local_unnamed_addr #2

; Function Attrs: mustprogress nofree nounwind willreturn
declare double @cos(double) local_unnamed_addr #3

; Function Attrs: nofree nounwind
declare noundef i32 @printf(i8* nocapture noundef readonly, ...) local_unnamed_addr #2

; Function Attrs: argmemonly mustprogress nofree nosync nounwind willreturn
declare void @llvm.lifetime.end.p0i8(i64 immarg, i8* nocapture) #1

declare float @sqrtf(float) local_unnamed_addr


!llvm.module.flags = !{!0, !1, !2, !3}
!llvm.ident = !{!4}

!0 = !{i32 1, !"wchar_size", i32 4}
!1 = !{i32 7, !"PIC Level", i32 2}
!2 = !{i32 7, !"PIE Level", i32 2}
!3 = !{i32 7, !"uwtable", i32 1}
!4 = !{!"clang version 13.0.0"}
!5 = !{!6, !6, i64 0}
!6 = !{!"float", !7, i64 0}
!7 = !{!"omnipotent char", !8, i64 0}
!8 = !{!"Simple C/C++ TBAA"}
